; ModuleID = '43/1012.c'
source_filename = "43/1012.c"
target datalayout = "e-m:e-p270:32:32-p271:32:32-p272:64:64-i64:64-f80:128-n8:16:32:64-S128"
target triple = "x86_64-pc-linux-gnu"

@.str = private unnamed_addr constant [3 x i8] c"%d\00", align 1
@.str.1 = private unnamed_addr constant [7 x i8] c"%d %d\0A\00", align 1

; Function Attrs: noinline nounwind uwtable
define dso_local i32 @main() #0 {
  %1 = alloca i32, align 4
  %2 = alloca i32, align 4
  %3 = alloca i32, align 4
  %4 = alloca i32, align 4
  %5 = alloca i32, align 4
  %6 = alloca i32, align 4
  %7 = alloca i32, align 4
  %8 = alloca i32, align 4
  store i32 0, i32* %1, align 4
  %9 = call i32 (i8*, ...) @__isoc99_scanf(i8* getelementptr inbounds ([3 x i8], [3 x i8]* @.str, i64 0, i64 0), i32* %2)
  store i32 3, i32* %3, align 4
  br label %10

10:                                               ; preds = %70, %0
  %11 = load i32, i32* %3, align 4
  %12 = load i32, i32* %2, align 4
  %13 = sdiv i32 %12, 2
  %14 = icmp sle i32 %11, %13
  br i1 %14, label %15, label %73

15:                                               ; preds = %10
  %16 = load i32, i32* %3, align 4
  %17 = sitofp i32 %16 to double
  %18 = call double @sqrt(double %17) #3
  %19 = fptosi double %18 to i32
  store i32 %19, i32* %8, align 4
  store i32 2, i32* %6, align 4
  br label %20

20:                                               ; preds = %31, %15
  %21 = load i32, i32* %6, align 4
  %22 = load i32, i32* %8, align 4
  %23 = icmp sle i32 %21, %22
  br i1 %23, label %24, label %34

24:                                               ; preds = %20
  %25 = load i32, i32* %3, align 4
  %26 = load i32, i32* %6, align 4
  %27 = srem i32 %25, %26
  %28 = icmp eq i32 %27, 0
  br i1 %28, label %29, label %30

29:                                               ; preds = %24
  br label %34

30:                                               ; preds = %24
  br label %31

31:                                               ; preds = %30
  %32 = load i32, i32* %6, align 4
  %33 = add nsw i32 %32, 1
  store i32 %33, i32* %6, align 4
  br label %20

34:                                               ; preds = %29, %20
  %35 = load i32, i32* %6, align 4
  %36 = load i32, i32* %8, align 4
  %37 = icmp sgt i32 %35, %36
  br i1 %37, label %38, label %69

38:                                               ; preds = %34
  %39 = load i32, i32* %2, align 4
  %40 = load i32, i32* %3, align 4
  %41 = sub nsw i32 %39, %40
  store i32 %41, i32* %4, align 4
  %42 = load i32, i32* %4, align 4
  %43 = sitofp i32 %42 to double
  %44 = call double @sqrt(double %43) #3
  %45 = fptosi double %44 to i32
  store i32 %45, i32* %7, align 4
  store i32 2, i32* %5, align 4
  br label %46

46:                                               ; preds = %57, %38
  %47 = load i32, i32* %5, align 4
  %48 = load i32, i32* %7, align 4
  %49 = icmp sle i32 %47, %48
  br i1 %49, label %50, label %60

50:                                               ; preds = %46
  %51 = load i32, i32* %4, align 4
  %52 = load i32, i32* %5, align 4
  %53 = srem i32 %51, %52
  %54 = icmp eq i32 %53, 0
  br i1 %54, label %55, label %56

55:                                               ; preds = %50
  br label %60

56:                                               ; preds = %50
  br label %57

57:                                               ; preds = %56
  %58 = load i32, i32* %5, align 4
  %59 = add nsw i32 %58, 1
  store i32 %59, i32* %5, align 4
  br label %46

60:                                               ; preds = %55, %46
  %61 = load i32, i32* %5, align 4
  %62 = load i32, i32* %7, align 4
  %63 = icmp sgt i32 %61, %62
  br i1 %63, label %64, label %68

64:                                               ; preds = %60
  %65 = load i32, i32* %3, align 4
  %66 = load i32, i32* %4, align 4
  %67 = call i32 (i8*, ...) @printf(i8* getelementptr inbounds ([7 x i8], [7 x i8]* @.str.1, i64 0, i64 0), i32 %65, i32 %66)
  br label %68

68:                                               ; preds = %64, %60
  br label %69

69:                                               ; preds = %68, %34
  br label %70

70:                                               ; preds = %69
  %71 = load i32, i32* %3, align 4
  %72 = add nsw i32 %71, 1
  store i32 %72, i32* %3, align 4
  br label %10

73:                                               ; preds = %10
  ret i32 0
}

declare dso_local i32 @__isoc99_scanf(i8*, ...) #1

; Function Attrs: nounwind
declare dso_local double @sqrt(double) #2

declare dso_local i32 @printf(i8*, ...) #1


!llvm.module.flags = !{!0}
!llvm.ident = !{!1}

!0 = !{i32 1, !"wchar_size", i32 4}
!1 = !{!"clang version 10.0.0-4ubuntu1 "}
